; Function Attrs: nounwind uwtable
define hidden void @zim_Exception___construct(ptr nocapture noundef readonly %0, ptr nocapture readnone %1) #0 {
  %3 = alloca ptr, align 8
  %4 = alloca i64, align 8
  %5 = alloca %struct._zval_struct, align 8
  %6 = alloca ptr, align 8
  store ptr null, ptr %3, align 8
  store i64 0, ptr %4, align 8
  store ptr null, ptr %6, align 8
  %7 = getelementptr inbounds i8, ptr %0, i64 32
  %8 = load ptr, ptr %7, align 8
  %9 = getelementptr i8, ptr %8, i64 16
  %.val = load ptr, ptr %9, align 8
  %10 = load ptr, ptr @zend_ce_exception, align 8
  %11 = icmp eq ptr %10, %.val
  br i1 %11, label %i_get_exception_base.exit, label %12

12:                                               ; preds = %2
  %13 = tail call zeroext i1 @instanceof_function_slow(ptr noundef %.val, ptr noundef %10) #15
  %zend_ce_exception.val.i = load ptr, ptr @zend_ce_exception, align 8
  %zend_ce_error.val.i = load ptr, ptr @zend_ce_error, align 8
  %.pre.i = select i1 %13, ptr %zend_ce_exception.val.i, ptr %zend_ce_error.val.i
  br label %i_get_exception_base.exit

i_get_exception_base.exit:                        ; preds = %2, %12
  %14 = phi ptr [ %.val, %2 ], [ %.pre.i, %12 ]
  %15 = getelementptr inbounds i8, ptr %0, i64 44
  %16 = load i32, ptr %15, align 4
  %17 = load ptr, ptr @zend_ce_throwable, align 8
  %18 = call i32 (i32, ptr, ...) @zend_parse_parameters(i32 noundef %16, ptr noundef nonnull @.str.3, ptr noundef nonnull %3, ptr noundef nonnull %4, ptr noundef nonnull %6, ptr noundef %17) #15
  %19 = icmp eq i32 %18, -1
  br i1 %19, label %20, label %23

20:                                               ; preds = %i_get_exception_base.exit
  %21 = load ptr, ptr getelementptr inbounds (%struct._zend_executor_globals, ptr @executor_globals, i64 0, i32 50), align 8
  %22 = icmp ne ptr %21, null
  call void @llvm.assume(i1 %22)
  br label %50

23:                                               ; preds = %i_get_exception_base.exit
  %24 = load ptr, ptr %3, align 8
  %.not = icmp eq ptr %24, null
  br i1 %.not, label %35, label %25

25:                                               ; preds = %23
  store ptr %24, ptr %5, align 8
  %26 = getelementptr inbounds i8, ptr %24, i64 4
  %27 = load i32, ptr %26, align 4
  %28 = and i32 %27, 64
  %.not17 = icmp eq i32 %28, 0
  %29 = select i1 %.not17, i32 262, i32 6
  %30 = getelementptr inbounds i8, ptr %5, i64 8
  store i32 %29, ptr %30, align 8
  %31 = load ptr, ptr %7, align 8
  %32 = load ptr, ptr @zend_known_strings, align 8
  %33 = getelementptr inbounds i8, ptr %32, i64 200
  %34 = load ptr, ptr %33, align 8
  call void @zend_update_property_ex(ptr noundef %14, ptr noundef %31, ptr noundef %34, ptr noundef nonnull %5) #15
  br label %35

35:                                               ; preds = %25, %23
  %36 = load i64, ptr %4, align 8
  %.not18 = icmp eq i64 %36, 0
  br i1 %.not18, label %43, label %37

37:                                               ; preds = %35
  store i64 %36, ptr %5, align 8
  %38 = getelementptr inbounds i8, ptr %5, i64 8
  store i32 4, ptr %38, align 8
  %39 = load ptr, ptr %7, align 8
  %40 = load ptr, ptr @zend_known_strings, align 8
  %41 = getelementptr inbounds i8, ptr %40, i64 192
  %42 = load ptr, ptr %41, align 8
  call void @zend_update_property_ex(ptr noundef %14, ptr noundef %39, ptr noundef %42, ptr noundef nonnull %5) #15
  br label %43

43:                                               ; preds = %37, %35
  %44 = load ptr, ptr %6, align 8
  %.not19 = icmp eq ptr %44, null
  br i1 %.not19, label %50, label %45

45:                                               ; preds = %43
  %46 = load ptr, ptr %7, align 8
  %47 = load ptr, ptr @zend_known_strings, align 8
  %48 = getelementptr inbounds i8, ptr %47, i64 184
  %49 = load ptr, ptr %48, align 8
  call void @zend_update_property_ex(ptr noundef %14, ptr noundef %46, ptr noundef %49, ptr noundef nonnull %44) #15
  br label %50

50:                                               ; preds = %45, %43, %20
  ret void
}